; Function Attrs: nounwind uwtable
define internal void @cff_size_done(ptr nocapture noundef readonly %0) #4 {
  %2 = load ptr, ptr %0, align 8
  %3 = getelementptr inbounds i8, ptr %2, i64 184
  %4 = load ptr, ptr %3, align 8
  %5 = getelementptr inbounds i8, ptr %2, i64 1168
  %6 = load ptr, ptr %5, align 8
  %7 = getelementptr inbounds i8, ptr %0, i64 80
  %8 = load ptr, ptr %7, align 8
  %9 = load ptr, ptr %8, align 8
  %.not = icmp eq ptr %9, null
  br i1 %.not, label %31, label %10

10:                                               ; preds = %1
  %.val.val.val = load ptr, ptr %6, align 8
  %11 = getelementptr i8, ptr %6, i64 4952
  %.val.val.val21 = load ptr, ptr %11, align 8
  %12 = tail call ptr @FT_Get_Module(ptr noundef %.val.val.val, ptr noundef nonnull @.str.16) #20
  %13 = icmp ne ptr %12, null
  %14 = icmp ne ptr %.val.val.val21, null
  %or.cond.i = select i1 %13, i1 %14, i1 false
  br i1 %or.cond.i, label %15, label %cff_size_get_globals_funcs.exit.thread

15:                                               ; preds = %10
  %16 = load ptr, ptr %.val.val.val21, align 8
  %.not.i = icmp eq ptr %16, null
  br i1 %.not.i, label %cff_size_get_globals_funcs.exit.thread, label %cff_size_get_globals_funcs.exit

cff_size_get_globals_funcs.exit:                  ; preds = %15
  %17 = tail call ptr %16(ptr noundef nonnull %12) #20
  %.not19 = icmp eq ptr %17, null
  br i1 %.not19, label %cff_size_get_globals_funcs.exit.thread, label %18

18:                                               ; preds = %cff_size_get_globals_funcs.exit
  %19 = getelementptr inbounds i8, ptr %17, i64 16
  %20 = load ptr, ptr %19, align 8
  %21 = load ptr, ptr %9, align 8
  tail call void %20(ptr noundef %21) #20
  %22 = getelementptr inbounds i8, ptr %6, i64 2864
  %23 = load i32, ptr %22, align 8
  %.not2023 = icmp eq i32 %23, 0
  br i1 %.not2023, label %cff_size_get_globals_funcs.exit.thread, label %.lr.ph

.lr.ph:                                           ; preds = %18
  %24 = getelementptr inbounds i8, ptr %9, i64 8
  %25 = zext i32 %23 to i64
  br label %26

26:                                               ; preds = %.lr.ph, %26
  %indvars.iv = phi i64 [ %25, %.lr.ph ], [ %28, %26 ]
  %27 = load ptr, ptr %19, align 8
  %28 = add nsw i64 %indvars.iv, -1
  %29 = getelementptr inbounds [256 x ptr], ptr %24, i64 0, i64 %28
  %30 = load ptr, ptr %29, align 8
  tail call void %27(ptr noundef %30) #20
  %.not20.wide = icmp eq i64 %28, 0
  br i1 %.not20.wide, label %cff_size_get_globals_funcs.exit.thread, label %26, !llvm.loop !12

cff_size_get_globals_funcs.exit.thread:           ; preds = %26, %18, %10, %15, %cff_size_get_globals_funcs.exit
  tail call void @ft_mem_free(ptr noundef %4, ptr noundef nonnull %9) #20
  br label %31

31:                                               ; preds = %cff_size_get_globals_funcs.exit.thread, %1
  ret void
}